; Function Attrs: mustprogress uwtable
define noundef i32 @_ZN5arrow8internal10ThreadPool17GetActualCapacityEv(ptr noundef nonnull readonly align 8 captures(none) dereferenceable(33) %0) local_unnamed_addr #3 align 2 personality ptr @__gxx_personality_v0 {
  %2 = getelementptr inbounds nuw i8, ptr %0, i64 24
  %3 = load ptr, ptr %2, align 8, !tbaa !112
  %4 = tail call noundef i32 @pthread_mutex_lock(ptr noundef nonnull align 8 dereferenceable(40) %3) #33
  %.not.i.i.i = icmp eq i32 %4, 0
  br i1 %.not.i.i.i, label %_ZNSt11unique_lockISt5mutexED2Ev.exit, label %5

5:                                                ; preds = %1
  tail call void @_ZSt20__throw_system_errori(i32 noundef %4) #34
  unreachable

_ZNSt11unique_lockISt5mutexED2Ev.exit:            ; preds = %1
  %6 = load ptr, ptr %2, align 8, !tbaa !112
  %7 = getelementptr inbounds nuw i8, ptr %6, i64 200
  %8 = load i64, ptr %7, align 8, !tbaa !176
  %9 = trunc i64 %8 to i32
  %10 = tail call noundef i32 @pthread_mutex_unlock(ptr noundef nonnull align 8 dereferenceable(40) %3) #33
  ret i32 %9
}